; ModuleID = '20/657.c'
source_filename = "20/657.c"
target datalayout = "e-m:e-p270:32:32-p271:32:32-p272:64:64-i64:64-f80:128-n8:16:32:64-S128"
target triple = "x86_64-pc-linux-gnu"

@.str = private unnamed_addr constant [6 x i8] c"%s %s\00", align 1
@.str.1 = private unnamed_addr constant [4 x i8] c"%s\0A\00", align 1

; Function Attrs: noinline nounwind uwtable
define dso_local void @main() #0 {
  %1 = alloca i8*, align 8
  %2 = alloca i8*, align 8
  %3 = alloca i32, align 4
  %4 = alloca i32, align 4
  %5 = alloca i32, align 4
  %6 = alloca i32, align 4
  %7 = alloca i32, align 4
  %8 = alloca i32, align 4
  %9 = alloca i32, align 4
  %10 = call noalias i8* @malloc(i64 1000) #4
  store i8* %10, i8** %1, align 8
  %11 = call noalias i8* @malloc(i64 3) #4
  store i8* %11, i8** %2, align 8
  br label %12

12:                                               ; preds = %98, %0
  %13 = load i8*, i8** %1, align 8
  %14 = load i8*, i8** %2, align 8
  %15 = call i32 (i8*, ...) @__isoc99_scanf(i8* getelementptr inbounds ([6 x i8], [6 x i8]* @.str, i64 0, i64 0), i8* %13, i8* %14)
  %16 = icmp ne i32 %15, -1
  br i1 %16, label %17, label %101

17:                                               ; preds = %12
  store i32 0, i32* %8, align 4
  %18 = load i8*, i8** %1, align 8
  %19 = call i64 @strlen(i8* %18) #5
  %20 = trunc i64 %19 to i32
  store i32 %20, i32* %4, align 4
  %21 = load i8*, i8** %1, align 8
  %22 = load i8, i8* %21, align 1
  %23 = sext i8 %22 to i32
  store i32 %23, i32* %9, align 4
  store i32 0, i32* %5, align 4
  br label %24

24:                                               ; preds = %46, %17
  %25 = load i32, i32* %5, align 4
  %26 = load i32, i32* %4, align 4
  %27 = icmp slt i32 %25, %26
  br i1 %27, label %28, label %49

28:                                               ; preds = %24
  %29 = load i8*, i8** %1, align 8
  %30 = load i32, i32* %5, align 4
  %31 = sext i32 %30 to i64
  %32 = getelementptr inbounds i8, i8* %29, i64 %31
  %33 = load i8, i8* %32, align 1
  %34 = sext i8 %33 to i32
  %35 = load i32, i32* %9, align 4
  %36 = icmp sgt i32 %34, %35
  br i1 %36, label %37, label %45

37:                                               ; preds = %28
  %38 = load i8*, i8** %1, align 8
  %39 = load i32, i32* %5, align 4
  %40 = sext i32 %39 to i64
  %41 = getelementptr inbounds i8, i8* %38, i64 %40
  %42 = load i8, i8* %41, align 1
  %43 = sext i8 %42 to i32
  store i32 %43, i32* %9, align 4
  %44 = load i32, i32* %5, align 4
  store i32 %44, i32* %8, align 4
  br label %45

45:                                               ; preds = %37, %28
  br label %46

46:                                               ; preds = %45
  %47 = load i32, i32* %5, align 4
  %48 = add nsw i32 %47, 1
  store i32 %48, i32* %5, align 4
  br label %24

49:                                               ; preds = %24
  %50 = load i32, i32* %4, align 4
  %51 = sub nsw i32 %50, 1
  store i32 %51, i32* %5, align 4
  br label %52

52:                                               ; preds = %68, %49
  %53 = load i32, i32* %5, align 4
  %54 = load i32, i32* %8, align 4
  %55 = add nsw i32 %54, 1
  %56 = icmp sge i32 %53, %55
  br i1 %56, label %57, label %71

57:                                               ; preds = %52
  %58 = load i8*, i8** %1, align 8
  %59 = load i32, i32* %5, align 4
  %60 = sext i32 %59 to i64
  %61 = getelementptr inbounds i8, i8* %58, i64 %60
  %62 = load i8, i8* %61, align 1
  %63 = load i8*, i8** %1, align 8
  %64 = load i32, i32* %5, align 4
  %65 = sext i32 %64 to i64
  %66 = getelementptr inbounds i8, i8* %63, i64 %65
  %67 = getelementptr inbounds i8, i8* %66, i64 3
  store i8 %62, i8* %67, align 1
  br label %68

68:                                               ; preds = %57
  %69 = load i32, i32* %5, align 4
  %70 = add nsw i32 %69, -1
  store i32 %70, i32* %5, align 4
  br label %52

71:                                               ; preds = %52
  %72 = load i8*, i8** %1, align 8
  %73 = load i32, i32* %4, align 4
  %74 = sext i32 %73 to i64
  %75 = getelementptr inbounds i8, i8* %72, i64 %74
  %76 = getelementptr inbounds i8, i8* %75, i64 -1
  %77 = getelementptr inbounds i8, i8* %76, i64 4
  store i8 0, i8* %77, align 1
  store i32 0, i32* %5, align 4
  br label %78

78:                                               ; preds = %95, %71
  %79 = load i32, i32* %5, align 4
  %80 = icmp slt i32 %79, 3
  br i1 %80, label %81, label %98

81:                                               ; preds = %78
  %82 = load i8*, i8** %2, align 8
  %83 = load i32, i32* %5, align 4
  %84 = sext i32 %83 to i64
  %85 = getelementptr inbounds i8, i8* %82, i64 %84
  %86 = load i8, i8* %85, align 1
  %87 = load i8*, i8** %1, align 8
  %88 = load i32, i32* %8, align 4
  %89 = sext i32 %88 to i64
  %90 = getelementptr inbounds i8, i8* %87, i64 %89
  %91 = getelementptr inbounds i8, i8* %90, i64 1
  %92 = load i32, i32* %5, align 4
  %93 = sext i32 %92 to i64
  %94 = getelementptr inbounds i8, i8* %91, i64 %93
  store i8 %86, i8* %94, align 1
  br label %95

95:                                               ; preds = %81
  %96 = load i32, i32* %5, align 4
  %97 = add nsw i32 %96, 1
  store i32 %97, i32* %5, align 4
  br label %78

98:                                               ; preds = %78
  %99 = load i8*, i8** %1, align 8
  %100 = call i32 (i8*, ...) @printf(i8* getelementptr inbounds ([4 x i8], [4 x i8]* @.str.1, i64 0, i64 0), i8* %99)
  br label %12

101:                                              ; preds = %12
  ret void
}

; Function Attrs: nounwind
declare dso_local noalias i8* @malloc(i64) #1

declare dso_local i32 @__isoc99_scanf(i8*, ...) #2

; Function Attrs: nounwind readonly
declare dso_local i64 @strlen(i8*) #3

declare dso_local i32 @printf(i8*, ...) #2


!llvm.module.flags = !{!0}
!llvm.ident = !{!1}

!0 = !{i32 1, !"wchar_size", i32 4}
!1 = !{!"clang version 10.0.0-4ubuntu1 "}
